target datalayout = "e-m:e-p270:32:32-p271:32:32-p272:64:64-i64:64-i128:128-f80:128-n8:16:32:64-S128"
target triple = "x86_64-pc-linux-gnu"

%struct.H5O_ginfo_t = type { i32, i8, i16, i16, i8, i16, i16 }

@H5O_init_g = external global i8, align 1
@H5_libterm_g = external global i8, align 1

; Function Attrs: nounwind uwtable
define internal i32 @H5O__ginfo_encode(ptr noundef %0, i1 noundef zeroext %1, i64 noundef %2, ptr noundef %3, ptr noundef %4) #0 {
  %6 = alloca ptr, align 8
  %7 = alloca i8, align 1
  %8 = alloca i64, align 8
  %9 = alloca ptr, align 8
  %10 = alloca ptr, align 8
  %11 = alloca ptr, align 8
  %12 = alloca i8, align 1
  store ptr %0, ptr %6, align 8, !tbaa !3
  %13 = zext i1 %1 to i8
  store i8 %13, ptr %7, align 1, !tbaa !21
  store i64 %2, ptr %8, align 8, !tbaa !14
  store ptr %3, ptr %9, align 8, !tbaa !16
  store ptr %4, ptr %10, align 8, !tbaa !20
  call void @llvm.lifetime.start.p0(i64 8, ptr %11) #6
  %14 = load ptr, ptr %10, align 8, !tbaa !20
  store ptr %14, ptr %11, align 8, !tbaa !18
  call void @llvm.lifetime.start.p0(i64 1, ptr %12) #6
  store i8 0, ptr %12, align 1, !tbaa !25
  %15 = load i8, ptr @H5O_init_g, align 1, !tbaa !21, !range !23, !noundef !24
  %16 = trunc i8 %15 to i1
  br i1 %16, label %21, label %17

17:                                               ; preds = %5
  %18 = load i8, ptr @H5_libterm_g, align 1, !tbaa !21, !range !23, !noundef !24
  %19 = trunc i8 %18 to i1
  %20 = xor i1 %19, true
  br label %21

21:                                               ; preds = %17, %5
  %22 = phi i1 [ true, %5 ], [ %20, %17 ]
  %23 = xor i1 %22, true
  %24 = xor i1 %23, true
  %25 = zext i1 %24 to i32
  %26 = sext i32 %25 to i64
  %27 = call i64 @llvm.expect.i64(i64 %26, i64 1)
  %28 = icmp ne i64 %27, 0
  br i1 %28, label %29, label %150

29:                                               ; preds = %21
  %30 = load ptr, ptr %9, align 8, !tbaa !16
  %31 = getelementptr inbounds nuw i8, ptr %30, i32 1
  store ptr %31, ptr %9, align 8, !tbaa !16
  store i8 0, ptr %30, align 1, !tbaa !25
  %32 = load ptr, ptr %11, align 8, !tbaa !18
  %33 = getelementptr inbounds nuw %struct.H5O_ginfo_t, ptr %32, i32 0, i32 1
  %34 = load i8, ptr %33, align 4, !tbaa !26, !range !23, !noundef !24
  %35 = trunc i8 %34 to i1
  %36 = select i1 %35, i32 1, i32 0
  %37 = trunc i32 %36 to i8
  store i8 %37, ptr %12, align 1, !tbaa !25
  %38 = load i8, ptr %12, align 1, !tbaa !25
  %39 = zext i8 %38 to i32
  %40 = load ptr, ptr %11, align 8, !tbaa !18
  %41 = getelementptr inbounds nuw %struct.H5O_ginfo_t, ptr %40, i32 0, i32 4
  %42 = load i8, ptr %41, align 2, !tbaa !29, !range !23, !noundef !24
  %43 = trunc i8 %42 to i1
  %44 = select i1 %43, i32 2, i32 0
  %45 = or i32 %39, %44
  %46 = trunc i32 %45 to i8
  store i8 %46, ptr %12, align 1, !tbaa !25
  %47 = load i8, ptr %12, align 1, !tbaa !25
  %48 = load ptr, ptr %9, align 8, !tbaa !16
  %49 = getelementptr inbounds nuw i8, ptr %48, i32 1
  store ptr %49, ptr %9, align 8, !tbaa !16
  store i8 %47, ptr %48, align 1, !tbaa !25
  %50 = load ptr, ptr %11, align 8, !tbaa !18
  %51 = getelementptr inbounds nuw %struct.H5O_ginfo_t, ptr %50, i32 0, i32 1
  %52 = load i8, ptr %51, align 4, !tbaa !26, !range !23, !noundef !24
  %53 = trunc i8 %52 to i1
  br i1 %53, label %54, label %99

54:                                               ; preds = %29
  br label %55

55:                                               ; preds = %54
  %56 = load ptr, ptr %11, align 8, !tbaa !18
  %57 = getelementptr inbounds nuw %struct.H5O_ginfo_t, ptr %56, i32 0, i32 2
  %58 = load i16, ptr %57, align 2, !tbaa !30
  %59 = zext i16 %58 to i32
  %60 = and i32 %59, 255
  %61 = trunc i32 %60 to i8
  %62 = load ptr, ptr %9, align 8, !tbaa !16
  store i8 %61, ptr %62, align 1, !tbaa !25
  %63 = load ptr, ptr %9, align 8, !tbaa !16
  %64 = getelementptr inbounds nuw i8, ptr %63, i32 1
  store ptr %64, ptr %9, align 8, !tbaa !16
  %65 = load ptr, ptr %11, align 8, !tbaa !18
  %66 = getelementptr inbounds nuw %struct.H5O_ginfo_t, ptr %65, i32 0, i32 2
  %67 = load i16, ptr %66, align 2, !tbaa !30
  %68 = zext i16 %67 to i32
  %69 = lshr i32 %68, 8
  %70 = and i32 %69, 255
  %71 = trunc i32 %70 to i8
  %72 = load ptr, ptr %9, align 8, !tbaa !16
  store i8 %71, ptr %72, align 1, !tbaa !25
  %73 = load ptr, ptr %9, align 8, !tbaa !16
  %74 = getelementptr inbounds nuw i8, ptr %73, i32 1
  store ptr %74, ptr %9, align 8, !tbaa !16
  br label %75

75:                                               ; preds = %55
  br label %76

76:                                               ; preds = %75
  br label %77

77:                                               ; preds = %76
  %78 = load ptr, ptr %11, align 8, !tbaa !18
  %79 = getelementptr inbounds nuw %struct.H5O_ginfo_t, ptr %78, i32 0, i32 3
  %80 = load i16, ptr %79, align 4, !tbaa !31
  %81 = zext i16 %80 to i32
  %82 = and i32 %81, 255
  %83 = trunc i32 %82 to i8
  %84 = load ptr, ptr %9, align 8, !tbaa !16
  store i8 %83, ptr %84, align 1, !tbaa !25
  %85 = load ptr, ptr %9, align 8, !tbaa !16
  %86 = getelementptr inbounds nuw i8, ptr %85, i32 1
  store ptr %86, ptr %9, align 8, !tbaa !16
  %87 = load ptr, ptr %11, align 8, !tbaa !18
  %88 = getelementptr inbounds nuw %struct.H5O_ginfo_t, ptr %87, i32 0, i32 3
  %89 = load i16, ptr %88, align 4, !tbaa !31
  %90 = zext i16 %89 to i32
  %91 = lshr i32 %90, 8
  %92 = and i32 %91, 255
  %93 = trunc i32 %92 to i8
  %94 = load ptr, ptr %9, align 8, !tbaa !16
  store i8 %93, ptr %94, align 1, !tbaa !25
  %95 = load ptr, ptr %9, align 8, !tbaa !16
  %96 = getelementptr inbounds nuw i8, ptr %95, i32 1
  store ptr %96, ptr %9, align 8, !tbaa !16
  br label %97

97:                                               ; preds = %77
  br label %98

98:                                               ; preds = %97
  br label %99

99:                                               ; preds = %98, %29
  %100 = load ptr, ptr %11, align 8, !tbaa !18
  %101 = getelementptr inbounds nuw %struct.H5O_ginfo_t, ptr %100, i32 0, i32 4
  %102 = load i8, ptr %101, align 2, !tbaa !29, !range !23, !noundef !24
  %103 = trunc i8 %102 to i1
  br i1 %103, label %104, label %149

104:                                              ; preds = %99
  br label %105

105:                                              ; preds = %104
  %106 = load ptr, ptr %11, align 8, !tbaa !18
  %107 = getelementptr inbounds nuw %struct.H5O_ginfo_t, ptr %106, i32 0, i32 5
  %108 = load i16, ptr %107, align 4, !tbaa !32
  %109 = zext i16 %108 to i32
  %110 = and i32 %109, 255
  %111 = trunc i32 %110 to i8
  %112 = load ptr, ptr %9, align 8, !tbaa !16
  store i8 %111, ptr %112, align 1, !tbaa !25
  %113 = load ptr, ptr %9, align 8, !tbaa !16
  %114 = getelementptr inbounds nuw i8, ptr %113, i32 1
  store ptr %114, ptr %9, align 8, !tbaa !16
  %115 = load ptr, ptr %11, align 8, !tbaa !18
  %116 = getelementptr inbounds nuw %struct.H5O_ginfo_t, ptr %115, i32 0, i32 5
  %117 = load i16, ptr %116, align 4, !tbaa !32
  %118 = zext i16 %117 to i32
  %119 = lshr i32 %118, 8
  %120 = and i32 %119, 255
  %121 = trunc i32 %120 to i8
  %122 = load ptr, ptr %9, align 8, !tbaa !16
  store i8 %121, ptr %122, align 1, !tbaa !25
  %123 = load ptr, ptr %9, align 8, !tbaa !16
  %124 = getelementptr inbounds nuw i8, ptr %123, i32 1
  store ptr %124, ptr %9, align 8, !tbaa !16
  br label %125

125:                                              ; preds = %105
  br label %126

126:                                              ; preds = %125
  br label %127

127:                                              ; preds = %126
  %128 = load ptr, ptr %11, align 8, !tbaa !18
  %129 = getelementptr inbounds nuw %struct.H5O_ginfo_t, ptr %128, i32 0, i32 6
  %130 = load i16, ptr %129, align 2, !tbaa !33
  %131 = zext i16 %130 to i32
  %132 = and i32 %131, 255
  %133 = trunc i32 %132 to i8
  %134 = load ptr, ptr %9, align 8, !tbaa !16
  store i8 %133, ptr %134, align 1, !tbaa !25
  %135 = load ptr, ptr %9, align 8, !tbaa !16
  %136 = getelementptr inbounds nuw i8, ptr %135, i32 1
  store ptr %136, ptr %9, align 8, !tbaa !16
  %137 = load ptr, ptr %11, align 8, !tbaa !18
  %138 = getelementptr inbounds nuw %struct.H5O_ginfo_t, ptr %137, i32 0, i32 6
  %139 = load i16, ptr %138, align 2, !tbaa !33
  %140 = zext i16 %139 to i32
  %141 = lshr i32 %140, 8
  %142 = and i32 %141, 255
  %143 = trunc i32 %142 to i8
  %144 = load ptr, ptr %9, align 8, !tbaa !16
  store i8 %143, ptr %144, align 1, !tbaa !25
  %145 = load ptr, ptr %9, align 8, !tbaa !16
  %146 = getelementptr inbounds nuw i8, ptr %145, i32 1
  store ptr %146, ptr %9, align 8, !tbaa !16
  br label %147

147:                                              ; preds = %127
  br label %148

148:                                              ; preds = %147
  br label %149

149:                                              ; preds = %148, %99
  br label %150

150:                                              ; preds = %149, %21
  call void @llvm.lifetime.end.p0(i64 1, ptr %12) #6
  call void @llvm.lifetime.end.p0(i64 8, ptr %11) #6
  ret i32 0
}