; Function Attrs: mustprogress nofree norecurse nosync nounwind willreturn memory(read, argmem: readwrite, inaccessiblemem: none) uwtable
define internal noundef i32 @H5O__ginfo_encode(ptr readnone captures(none) %0, i1 zeroext %1, i64 %2, ptr noundef writeonly captures(none) %3, ptr noundef readonly captures(none) %4) #1 {
  %6 = load i8, ptr @H5O_init_g, align 1, !tbaa !3, !range !7, !noundef !8
  %7 = trunc nuw i8 %6 to i1
  %8 = load i8, ptr @H5_libterm_g, align 1, !range !7
  %9 = trunc nuw i8 %8 to i1
  %10 = xor i1 %9, true
  %11 = select i1 %7, i1 true, i1 %10
  br i1 %11, label %12, label %60, !prof !9

12:                                               ; preds = %5
  %13 = getelementptr inbounds nuw i8, ptr %3, i64 1
  store i8 0, ptr %3, align 1, !tbaa !12
  %14 = getelementptr inbounds nuw i8, ptr %4, i64 4
  %15 = load i8, ptr %14, align 4, !tbaa !13, !range !7, !noundef !8
  %16 = getelementptr inbounds nuw i8, ptr %4, i64 10
  %17 = load i8, ptr %16, align 2, !tbaa !17, !range !7, !noundef !8
  %18 = trunc nuw i8 %17 to i1
  %19 = select i1 %18, i8 2, i8 0
  %20 = or disjoint i8 %19, %15
  %21 = getelementptr inbounds nuw i8, ptr %3, i64 2
  store i8 %20, ptr %13, align 1, !tbaa !12
  %22 = load i8, ptr %14, align 4, !tbaa !13, !range !7, !noundef !8
  %23 = trunc nuw i8 %22 to i1
  br i1 %23, label %24, label %41

24:                                               ; preds = %12
  %25 = getelementptr inbounds nuw i8, ptr %4, i64 6
  %26 = load i16, ptr %25, align 2, !tbaa !18
  %27 = trunc i16 %26 to i8
  store i8 %27, ptr %21, align 1, !tbaa !12
  %28 = getelementptr inbounds nuw i8, ptr %3, i64 3
  %29 = load i16, ptr %25, align 2, !tbaa !18
  %30 = lshr i16 %29, 8
  %31 = trunc nuw i16 %30 to i8
  store i8 %31, ptr %28, align 1, !tbaa !12
  %32 = getelementptr inbounds nuw i8, ptr %3, i64 4
  %33 = getelementptr inbounds nuw i8, ptr %4, i64 8
  %34 = load i16, ptr %33, align 4, !tbaa !19
  %35 = trunc i16 %34 to i8
  store i8 %35, ptr %32, align 1, !tbaa !12
  %36 = getelementptr inbounds nuw i8, ptr %3, i64 5
  %37 = load i16, ptr %33, align 4, !tbaa !19
  %38 = lshr i16 %37, 8
  %39 = trunc nuw i16 %38 to i8
  store i8 %39, ptr %36, align 1, !tbaa !12
  %40 = getelementptr inbounds nuw i8, ptr %3, i64 6
  br label %41

41:                                               ; preds = %24, %12
  %.0 = phi ptr [ %40, %24 ], [ %21, %12 ]
  %42 = load i8, ptr %16, align 2, !tbaa !17, !range !7, !noundef !8
  %43 = trunc nuw i8 %42 to i1
  br i1 %43, label %44, label %60

44:                                               ; preds = %41
  %45 = getelementptr inbounds nuw i8, ptr %4, i64 12
  %46 = load i16, ptr %45, align 4, !tbaa !20
  %47 = trunc i16 %46 to i8
  store i8 %47, ptr %.0, align 1, !tbaa !12
  %48 = getelementptr inbounds nuw i8, ptr %.0, i64 1
  %49 = load i16, ptr %45, align 4, !tbaa !20
  %50 = lshr i16 %49, 8
  %51 = trunc nuw i16 %50 to i8
  store i8 %51, ptr %48, align 1, !tbaa !12
  %52 = getelementptr inbounds nuw i8, ptr %.0, i64 2
  %53 = getelementptr inbounds nuw i8, ptr %4, i64 14
  %54 = load i16, ptr %53, align 2, !tbaa !21
  %55 = trunc i16 %54 to i8
  store i8 %55, ptr %52, align 1, !tbaa !12
  %56 = getelementptr inbounds nuw i8, ptr %.0, i64 3
  %57 = load i16, ptr %53, align 2, !tbaa !21
  %58 = lshr i16 %57, 8
  %59 = trunc nuw i16 %58 to i8
  store i8 %59, ptr %56, align 1, !tbaa !12
  br label %60

60:                                               ; preds = %41, %44, %5
  ret i32 0
}